TEXT xray/b2i.Inspect(SB) /home/dave/src/xray/b2i/inspect.go
func Inspect() {
  0x4821c0		4c8da42470feffff	LEAQ 0xfffffe70(SP), R12	
  0x4821c8		4d3b6610		CMPQ R12, 0x10(R14)		
  0x4821cc		0f862f050000		JBE 0x482701			
  0x4821d2		55			PUSHQ BP			
  0x4821d3		4889e5			MOVQ SP, BP			
  0x4821d6		4881ec08020000		SUBQ $0x208, SP			
	bf32 = To[float32](f32 > 0)
  0x4821dd		f30f10058b3f0a00	MOVSS xray/b2i.f32(SB), X0	
  0x4821e5		f30f1144244c		MOVSS X0, 0x4c(SP)		
	bf64 = To[float64](f64 > 0)
  0x4821eb		f20f100ddd3f0a00	MOVSD_XMM xray/b2i.f64(SB), X1	
  0x4821f3		f20f114c2470		MOVSD_XMM X1, 0x70(SP)		
	bi = To[int](i > 0)
  0x4821f9		48833daf3f0a0000	CMPQ xray/b2i.i(SB), $0x0	
  0x482201		0f9fc1			SETG CL				
	return T(i)
  0x482204		0fb6c9			MOVZX CL, CX		
  0x482207		48894c2450		MOVQ CX, 0x50(SP)	
	bi8 = To[int8](i8 > 0)
  0x48220c		803d4d3f0a0000		CMPB 0xa3f4d(IP), $0x0	
  0x482213		0f9fc2			SETG DL			
		bi8,
  0x482216		0fb6d2			MOVZX DL, DX				
  0x482219		488d1da0600a00		LEAQ runtime.staticuint64s(SB), BX	
  0x482220		488d14d3		LEAQ 0(BX)(DX*8), DX			
  0x482224		4889942400020000	MOVQ DX, 0x200(SP)			
	bi16 = To[int16](i16 > 0)
  0x48222c		66833d303f0a0000	CMPW xray/b2i.i16(SB), $0x0	
  0x482234		400f9fc6		SETG SI				
	return T(i)
  0x482238		400fb6f6		MOVZX SI, SI		
  0x48223c		6689742442		MOVW SI, 0x42(SP)	
	bi32 = To[int32](i32 > 0)
  0x482241		833d203f0a0000		CMPL xray/b2i.i32(SB), $0x0	
  0x482248		410f9fc0		SETG R8				
	return T(i)
  0x48224c		450fb6c0		MOVZX R8, R8		
  0x482250		4489442448		MOVL R8, 0x48(SP)	
	bi64 = To[int64](i64 > 0)
  0x482255		48833d5b3f0a0000	CMPQ xray/b2i.i64(SB), $0x0	
  0x48225d		410f9fc1		SETG R9				
	return T(i)
  0x482261		450fb6c9		MOVZX R9, R9		
  0x482265		4c894c2468		MOVQ R9, 0x68(SP)	
	bui = To[uint](ui > 0)
  0x48226a		48833d4e3f0a0000	CMPQ xray/b2i.ui(SB), $0x0	
  0x482272		410f97c2		SETA R10			
	return T(i)
  0x482276		450fb6d2		MOVZX R10, R10		
  0x48227a		4c89542460		MOVQ R10, 0x60(SP)	
	bui8 = To[uint8](ui8 > 0)
  0x48227f		803ddb3e0a0000		CMPB xray/b2i.ui8(SB), $0x0	
  0x482286		410f97c3		SETA R11			
		bui8,
  0x48228a		450fb6db		MOVZX R11, R11		
  0x48228e		4e8d1cdb		LEAQ 0(BX)(R11*8), R11	
  0x482292		4c899c24f8010000	MOVQ R11, 0x1f8(SP)	
	bui16 = To[uint16](ui16 > 0)
  0x48229a		66833dc43e0a0000	CMPW xray/b2i.ui16(SB), $0x0	
  0x4822a2		410f97c4		SETA R12			
	return T(i)
  0x4822a6		450fb6e4		MOVZX R12, R12		
  0x4822aa		664489642440		MOVW R12, 0x40(SP)	
	bui32 = To[uint32](ui32 > 0)
  0x4822b0		833db53e0a0000		CMPL xray/b2i.ui32(SB), $0x0	
  0x4822b7		410f97c5		SETA R13			
	return T(i)
  0x4822bb		450fb6ed		MOVZX R13, R13		
  0x4822bf		44896c2444		MOVL R13, 0x44(SP)	
	bui64 = To[uint64](ui64 > 0)
  0x4822c4		48833dfc3e0a0000	CMPQ xray/b2i.ui64(SB), $0x0	
  0x4822cc		410f97c7		SETA R15			
  0x4822d0		44887c243f		MOVB R15, 0x3f(SP)		
	fmt.Printf(""+
  0x4822d5		488dbc2438010000	LEAQ 0x138(SP), DI	
  0x4822dd		0f1f00			NOPL 0(AX)		
  0x4822e0		48896c24f0		MOVQ BP, -0x10(SP)	
  0x4822e5		488d6c24f0		LEAQ -0x10(SP), BP	
  0x4822ea		e8bc07feff		CALL 0x462aab		
  0x4822ef		488b6d00		MOVQ 0(BP), BP		
		f32,
  0x4822f3		f30f1015753e0a00	MOVSS xray/b2i.f32(SB), X2	
  0x4822fb		660f7ed0		MOVD X2, AX			
  0x4822ff		90			NOPL				
  0x482300		e89b86f8ff		CALL runtime.convT32(SB)	
  0x482305		488d0db4820000		LEAQ 0x82b4(IP), CX		
  0x48230c		48898c2438010000	MOVQ CX, 0x138(SP)		
  0x482314		4889842440010000	MOVQ AX, 0x140(SP)		
		f64,
  0x48231c		f20f1005ac3e0a00	MOVSD_XMM xray/b2i.f64(SB), X0	
  0x482324		66480f7ec0		MOVQ X0, AX			
  0x482329		e8d286f8ff		CALL runtime.convT64(SB)	
  0x48232e		488d0dcb820000		LEAQ 0x82cb(IP), CX		
  0x482335		48898c2448010000	MOVQ CX, 0x148(SP)		
  0x48233d		4889842450010000	MOVQ AX, 0x150(SP)		
		i,
  0x482345		488b05643e0a00		MOVQ xray/b2i.i(SB), AX		
  0x48234c		e8af86f8ff		CALL runtime.convT64(SB)	
  0x482351		488d0d28810000		LEAQ 0x8128(IP), CX		
  0x482358		48898c2458010000	MOVQ CX, 0x158(SP)		
  0x482360		4889842460010000	MOVQ AX, 0x160(SP)		
		i8,
  0x482368		0fb615f13d0a00		MOVZX 0xa3df1(IP), DX			
  0x48236f		488d1d0a7f0000		LEAQ 0x7f0a(IP), BX			
  0x482376		48899c2468010000	MOVQ BX, 0x168(SP)			
  0x48237e		488d353b5f0a00		LEAQ runtime.staticuint64s(SB), SI	
  0x482385		488d14d6		LEAQ 0(SI)(DX*8), DX			
  0x482389		4889942470010000	MOVQ DX, 0x170(SP)			
		i16,
  0x482391		0fb705cc3d0a00		MOVZX xray/b2i.i16(SB), AX	
  0x482398		e88385f8ff		CALL runtime.convT16(SB)	
  0x48239d		488d0d5c7f0000		LEAQ 0x7f5c(IP), CX		
  0x4823a4		48898c2478010000	MOVQ CX, 0x178(SP)		
  0x4823ac		4889842480010000	MOVQ AX, 0x180(SP)		
		i32,
  0x4823b4		8b05ae3d0a00		MOVL xray/b2i.i32(SB), AX	
  0x4823ba		e8e185f8ff		CALL runtime.convT32(SB)	
  0x4823bf		488d0dba7f0000		LEAQ 0x7fba(IP), CX		
  0x4823c6		48898c2488010000	MOVQ CX, 0x188(SP)		
  0x4823ce		4889842490010000	MOVQ AX, 0x190(SP)		
		i64,
  0x4823d6		488b05db3d0a00		MOVQ xray/b2i.i64(SB), AX	
  0x4823dd		0f1f00			NOPL 0(AX)			
  0x4823e0		e81b86f8ff		CALL runtime.convT64(SB)	
  0x4823e5		488d0d14800000		LEAQ 0x8014(IP), CX		
  0x4823ec		48898c2498010000	MOVQ CX, 0x198(SP)		
  0x4823f4		48898424a0010000	MOVQ AX, 0x1a0(SP)		
		ui,
  0x4823fc		488b05bd3d0a00		MOVQ xray/b2i.ui(SB), AX	
  0x482403		e8f885f8ff		CALL runtime.convT64(SB)	
  0x482408		488d0db1800000		LEAQ 0x80b1(IP), CX		
  0x48240f		48898c24a8010000	MOVQ CX, 0x1a8(SP)		
  0x482417		48898424b0010000	MOVQ AX, 0x1b0(SP)		
		ui8,
  0x48241f		0fb6153b3d0a00		MOVZX xray/b2i.ui8(SB), DX		
  0x482426		488d1d937e0000		LEAQ 0x7e93(IP), BX			
  0x48242d		48899c24b8010000	MOVQ BX, 0x1b8(SP)			
  0x482435		488d35845e0a00		LEAQ runtime.staticuint64s(SB), SI	
  0x48243c		488d14d6		LEAQ 0(SI)(DX*8), DX			
  0x482440		48899424c0010000	MOVQ DX, 0x1c0(SP)			
		ui16,
  0x482448		0fb705173d0a00		MOVZX xray/b2i.ui16(SB), AX	
  0x48244f		e8cc84f8ff		CALL runtime.convT16(SB)	
  0x482454		488d0de57e0000		LEAQ 0x7ee5(IP), CX		
  0x48245b		48898c24c8010000	MOVQ CX, 0x1c8(SP)		
  0x482463		48898424d0010000	MOVQ AX, 0x1d0(SP)		
		ui32,
  0x48246b		8b05fb3c0a00		MOVL xray/b2i.ui32(SB), AX	
  0x482471		e82a85f8ff		CALL runtime.convT32(SB)	
  0x482476		488d0d437f0000		LEAQ 0x7f43(IP), CX		
  0x48247d		48898c24d8010000	MOVQ CX, 0x1d8(SP)		
  0x482485		48898424e0010000	MOVQ AX, 0x1e0(SP)		
		ui64)
  0x48248d		488b05343d0a00		MOVQ xray/b2i.ui64(SB), AX	
  0x482494		e86785f8ff		CALL runtime.convT64(SB)	
  0x482499		488d0da07f0000		LEAQ 0x7fa0(IP), CX		
  0x4824a0		48898c24e8010000	MOVQ CX, 0x1e8(SP)		
  0x4824a8		48898424f0010000	MOVQ AX, 0x1f0(SP)		
	return T(i)
  0x4824b0		0fb654243f		MOVZX 0x3f(SP), DX	
  0x4824b5		0fb6d2			MOVZX DL, DX		
  0x4824b8		4889542458		MOVQ DX, 0x58(SP)	
	return Fprintf(os.Stdout, format, a...)
  0x4824bd		488b1de4d30a00		MOVQ os.Stdout(SB), BX			
  0x4824c4		488d050dc50300		LEAQ go:itab.*os.File,io.Writer(SB), AX	
  0x4824cb		bf53000000		MOVL $0x53, DI				
  0x4824d0		488db42438010000	LEAQ 0x138(SP), SI			
  0x4824d8		41b80c000000		MOVL $0xc, R8				
  0x4824de		4d89c1			MOVQ R8, R9				
  0x4824e1		488d0d54270200		LEAQ 0x22754(IP), CX			
  0x4824e8		e8f394ffff		CALL fmt.Fprintf(SB)			
	fmt.Printf(""+
  0x4824ed		488d7c2478		LEAQ 0x78(SP), DI	
  0x4824f2		660f1f840000000000	NOPW 0(AX)(AX*1)	
  0x4824fb		0f1f440000		NOPL 0(AX)(AX*1)	
  0x482500		48896c24f0		MOVQ BP, -0x10(SP)	
  0x482505		488d6c24f0		LEAQ -0x10(SP), BP	
  0x48250a		e89c05feff		CALL 0x462aab		
  0x48250f		488b6d00		MOVQ 0(BP), BP		
	bf32 = To[float32](f32 > 0)
  0x482513		f30f1044244c		MOVSS 0x4c(SP), X0	
  0x482519		0f57c9			XORPS X1, X1		
  0x48251c		0f2ec1			UCOMISS X1, X0		
  0x48251f		0f97c1			SETA CL			
	return T(i)
  0x482522		0fb6c9			MOVZX CL, CX		
  0x482525		0f57c0			XORPS X0, X0		
  0x482528		f3480f2ac1		CVTSI2SSQ CX, X0	
		bf32,
  0x48252d		660f7ec0		MOVD X0, AX			
  0x482531		e86a84f8ff		CALL runtime.convT32(SB)	
  0x482536		488d0d83800000		LEAQ 0x8083(IP), CX		
  0x48253d		48894c2478		MOVQ CX, 0x78(SP)		
  0x482542		4889842480000000	MOVQ AX, 0x80(SP)		
	bf64 = To[float64](f64 > 0)
  0x48254a		f20f10442470		MOVSD_XMM 0x70(SP), X0	
  0x482550		0f57c9			XORPS X1, X1		
  0x482553		660f2ec1		UCOMISD X1, X0		
  0x482557		0f97c1			SETA CL			
	return T(i)
  0x48255a		0fb6c9			MOVZX CL, CX		
  0x48255d		0f57c0			XORPS X0, X0		
  0x482560		f2480f2ac1		CVTSI2SDQ CX, X0	
		bf64,
  0x482565		66480f7ec0		MOVQ X0, AX			
  0x48256a		e89184f8ff		CALL runtime.convT64(SB)	
  0x48256f		488d0d8a800000		LEAQ 0x808a(IP), CX		
  0x482576		48898c2488000000	MOVQ CX, 0x88(SP)		
  0x48257e		4889842490000000	MOVQ AX, 0x90(SP)		
		bi,
  0x482586		488b442450		MOVQ 0x50(SP), AX		
  0x48258b		e87084f8ff		CALL runtime.convT64(SB)	
  0x482590		488d0de97e0000		LEAQ 0x7ee9(IP), CX		
  0x482597		48898c2498000000	MOVQ CX, 0x98(SP)		
  0x48259f		48898424a0000000	MOVQ AX, 0xa0(SP)		
		bi8,
  0x4825a7		488d0dd27c0000		LEAQ 0x7cd2(IP), CX	
  0x4825ae		48898c24a8000000	MOVQ CX, 0xa8(SP)	
  0x4825b6		488b8c2400020000	MOVQ 0x200(SP), CX	
  0x4825be		48898c24b0000000	MOVQ CX, 0xb0(SP)	
		bi16,
  0x4825c6		0fb7442442		MOVZX 0x42(SP), AX		
  0x4825cb		e85083f8ff		CALL runtime.convT16(SB)	
  0x4825d0		488d0d297d0000		LEAQ 0x7d29(IP), CX		
  0x4825d7		48898c24b8000000	MOVQ CX, 0xb8(SP)		
  0x4825df		48898424c0000000	MOVQ AX, 0xc0(SP)		
		bi32,
  0x4825e7		8b442448		MOVL 0x48(SP), AX		
  0x4825eb		e8b083f8ff		CALL runtime.convT32(SB)	
  0x4825f0		488d0d897d0000		LEAQ 0x7d89(IP), CX		
  0x4825f7		48898c24c8000000	MOVQ CX, 0xc8(SP)		
  0x4825ff		48898424d0000000	MOVQ AX, 0xd0(SP)		
		bi64,
  0x482607		488b442468		MOVQ 0x68(SP), AX		
  0x48260c		e8ef83f8ff		CALL runtime.convT64(SB)	
  0x482611		488d0de87d0000		LEAQ 0x7de8(IP), CX		
  0x482618		48898c24d8000000	MOVQ CX, 0xd8(SP)		
  0x482620		48898424e0000000	MOVQ AX, 0xe0(SP)		
		bui,
  0x482628		488b442460		MOVQ 0x60(SP), AX		
  0x48262d		e8ce83f8ff		CALL runtime.convT64(SB)	
  0x482632		488d0d877e0000		LEAQ 0x7e87(IP), CX		
  0x482639		48898c24e8000000	MOVQ CX, 0xe8(SP)		
  0x482641		48898424f0000000	MOVQ AX, 0xf0(SP)		
		bui8,
  0x482649		488d0d707c0000		LEAQ 0x7c70(IP), CX	
  0x482650		48898c24f8000000	MOVQ CX, 0xf8(SP)	
  0x482658		488b8c24f8010000	MOVQ 0x1f8(SP), CX	
  0x482660		48898c2400010000	MOVQ CX, 0x100(SP)	
		bui16,
  0x482668		0fb7442440		MOVZX 0x40(SP), AX		
  0x48266d		e8ae82f8ff		CALL runtime.convT16(SB)	
  0x482672		488d0dc77c0000		LEAQ 0x7cc7(IP), CX		
  0x482679		48898c2408010000	MOVQ CX, 0x108(SP)		
  0x482681		4889842410010000	MOVQ AX, 0x110(SP)		
		bui32,
  0x482689		8b442444		MOVL 0x44(SP), AX		
  0x48268d		e80e83f8ff		CALL runtime.convT32(SB)	
  0x482692		488d0d277d0000		LEAQ 0x7d27(IP), CX		
  0x482699		48898c2418010000	MOVQ CX, 0x118(SP)		
  0x4826a1		4889842420010000	MOVQ AX, 0x120(SP)		
		bui64)
  0x4826a9		488b442458		MOVQ 0x58(SP), AX		
  0x4826ae		e84d83f8ff		CALL runtime.convT64(SB)	
  0x4826b3		488d0d867d0000		LEAQ 0x7d86(IP), CX		
  0x4826ba		48898c2428010000	MOVQ CX, 0x128(SP)		
  0x4826c2		4889842430010000	MOVQ AX, 0x130(SP)		
	return Fprintf(os.Stdout, format, a...)
  0x4826ca		488b1dd7d10a00		MOVQ os.Stdout(SB), BX			
  0x4826d1		488d0500c30300		LEAQ go:itab.*os.File,io.Writer(SB), AX	
  0x4826d8		488d0d05260200		LEAQ 0x22605(IP), CX			
  0x4826df		bf5f000000		MOVL $0x5f, DI				
  0x4826e4		488d742478		LEAQ 0x78(SP), SI			
  0x4826e9		41b80c000000		MOVL $0xc, R8				
  0x4826ef		4d89c1			MOVQ R8, R9				
  0x4826f2		e8e992ffff		CALL fmt.Fprintf(SB)			
}
  0x4826f7		4881c408020000		ADDQ $0x208, SP		
  0x4826fe		5d			POPQ BP			
  0x4826ff		90			NOPL			
  0x482700		c3			RET			
func Inspect() {
  0x482701		e8fadffdff		CALL runtime.morestack_noctxt.abi0(SB)	
  0x482706		e9b5faffff		JMP xray/b2i.Inspect(SB)		
